; Function Attrs: nounwind sspstrong uwtable
define internal noundef i64 @vm_call_iseq_setup_normal_0start_1params_4locals(ptr noundef captures(none) %0, ptr noundef captures(none) %1, ptr noundef readonly captures(none) %2) #2 {
  %4 = getelementptr inbounds nuw i8, ptr %2, i64 8
  %5 = load ptr, ptr %4, align 8, !tbaa !219
  %6 = getelementptr i8, ptr %5, i64 16
  %.val = load ptr, ptr %6, align 8, !tbaa !218
  %7 = getelementptr inbounds nuw i8, ptr %.val, i64 16
  %8 = load ptr, ptr %7, align 8, !tbaa !101
  %9 = getelementptr i8, ptr %8, i64 8
  %.val4 = load ptr, ptr %9, align 8, !tbaa !26
  %10 = getelementptr inbounds nuw i8, ptr %1, i64 8
  %11 = load ptr, ptr %10, align 8, !tbaa !93
  %12 = getelementptr inbounds nuw i8, ptr %2, i64 32
  %13 = load i32, ptr %12, align 8, !tbaa !213
  %14 = sext i32 %13 to i64
  %15 = sub nsw i64 0, %14
  %16 = getelementptr i64, ptr %11, i64 %15
  %17 = getelementptr i8, ptr %16, i64 8
  %18 = getelementptr i8, ptr %16, i64 -8
  store ptr %18, ptr %10, align 8, !tbaa !93
  %19 = getelementptr inbounds nuw i8, ptr %2, i64 24
  %20 = load i64, ptr %19, align 8, !tbaa !212
  %21 = getelementptr inbounds nuw i8, ptr %2, i64 16
  %22 = load i64, ptr %21, align 8, !tbaa !211
  %23 = getelementptr inbounds nuw i8, ptr %.val4, i64 16
  %24 = load ptr, ptr %23, align 8, !tbaa !73
  %25 = getelementptr inbounds nuw i8, ptr %24, i64 8
  %26 = load ptr, ptr %25, align 8, !tbaa !137
  %27 = getelementptr inbounds nuw i8, ptr %24, i64 256
  %28 = load i32, ptr %27, align 8, !tbaa !314
  %29 = getelementptr inbounds nuw i8, ptr %0, i64 16
  %30 = load ptr, ptr %29, align 8, !tbaa !66
  %31 = getelementptr i8, ptr %30, i64 -56
  %32 = add i32 %28, 3
  %33 = sext i32 %32 to i64
  %34 = getelementptr i64, ptr %17, i64 %33
  %35 = getelementptr i8, ptr %34, i64 56
  %.not.i = icmp ugt ptr %31, %35
  br i1 %.not.i, label %.lr.ph.i, label %36, !prof !69

36:                                               ; preds = %3
  tail call fastcc void @vm_stackoverflow() #56
  unreachable

.lr.ph.i:                                         ; preds = %3, %.lr.ph.i
  %.026.i = phi ptr [ %37, %.lr.ph.i ], [ %17, %3 ]
  %.02325.i = phi i32 [ %38, %.lr.ph.i ], [ 0, %3 ]
  %37 = getelementptr i8, ptr %.026.i, i64 8
  store i64 4, ptr %.026.i, align 8, !tbaa !7
  %38 = add nuw nsw i32 %.02325.i, 1
  %exitcond.not.i = icmp eq i32 %38, 3
  br i1 %exitcond.not.i, label %vm_push_frame.exit, label %.lr.ph.i, !llvm.loop !315

vm_push_frame.exit:                               ; preds = %.lr.ph.i
  %39 = ptrtoint ptr %.val to i64
  %40 = getelementptr i8, ptr %.026.i, i64 16
  store i64 %39, ptr %37, align 8, !tbaa !7
  %41 = getelementptr i8, ptr %.026.i, i64 24
  store i64 %22, ptr %40, align 8, !tbaa !7
  %42 = getelementptr i8, ptr %.026.i, i64 32
  store i64 286326787, ptr %41, align 8, !tbaa !7
  store ptr %26, ptr %31, align 8, !tbaa !95
  %.sroa.2.0..sroa_idx.i = getelementptr i8, ptr %30, i64 -48
  store ptr %42, ptr %.sroa.2.0..sroa_idx.i, align 8, !tbaa !95
  %.sroa.3.0..sroa_idx.i = getelementptr i8, ptr %30, i64 -40
  store ptr %.val4, ptr %.sroa.3.0..sroa_idx.i, align 8, !tbaa !96
  %.sroa.4.0..sroa_idx.i = getelementptr i8, ptr %30, i64 -32
  store i64 %20, ptr %.sroa.4.0..sroa_idx.i, align 8, !tbaa !7
  %.sroa.5.0..sroa_idx.i = getelementptr i8, ptr %30, i64 -24
  store ptr %41, ptr %.sroa.5.0..sroa_idx.i, align 8, !tbaa !95
  %.sroa.6.0..sroa_idx.i = getelementptr i8, ptr %30, i64 -16
  tail call void @llvm.memset.p0.i64(ptr noundef nonnull align 8 dereferenceable(16) %.sroa.6.0..sroa_idx.i, i8 0, i64 16, i1 false)
  fence syncscope("singlethread") seq_cst
  store ptr %31, ptr %29, align 8, !tbaa !66
  ret i64 36
}